(dp0
VversionCode
p1
V40
p2
sVversionName
p3
V1.4.0
p4
sVpackingTime
p5
V2017/12/4 13:00
p6
sVsum
p7
L1L
sVpass
p8
L0L
sVfail
p9
L1L
sVtestDate
p10
V2018-05-28 21:49:58
p11
sVtestSumDate
p12
V97\u79d2
p13
s.